; Function Attrs: nounwind uwtable
define internal void @entry_callback(ptr readnone captures(none) %0, ptr noundef readonly captures(none) %1) #1 {
  %3 = getelementptr inbounds nuw i8, ptr %1, i64 704
  %4 = load ptr, ptr %3, align 16, !tbaa !137
  %5 = getelementptr inbounds nuw i8, ptr %4, i64 40
  %6 = load ptr, ptr %5, align 8, !tbaa !133
  %7 = tail call ptr @gtk_tree_view_get_model(ptr noundef %6) #25
  %8 = tail call i64 @gtk_tree_model_filter_get_type() #28
  %9 = tail call ptr @g_type_check_instance_cast(ptr noundef %7, i64 noundef %8) #25
  %10 = tail call ptr @gtk_tree_model_filter_get_model(ptr noundef %9) #25
  tail call void @gtk_tree_model_foreach(ptr noundef %10, ptr noundef nonnull @list_match_string, ptr noundef %4) #25
  ret void
}